; Function Attrs: nounwind uwtable
define dso_local noundef ptr @makeJsonValueExpr(ptr noundef %0, ptr noundef %1, ptr noundef %2) local_unnamed_addr #0 {
  %4 = tail call noundef ptr @palloc0(i64 noundef 32) #7
  store i32 44, ptr %4, align 4
  %5 = getelementptr inbounds nuw i8, ptr %4, i64 8
  store ptr %0, ptr %5, align 8
  %6 = getelementptr inbounds nuw i8, ptr %4, i64 16
  store ptr %1, ptr %6, align 8
  %7 = getelementptr inbounds nuw i8, ptr %4, i64 24
  store ptr %2, ptr %7, align 8
  ret ptr %4
}